Certificate:
    Data:
        Version: 3 (0x2)
        Serial Number: 2 (0x2)
    Signature Algorithm: sha256WithRSAEncryption
        Issuer: C=IT, ST=Italy, L=Torino, O=HBR, OU=MyOrganizationalUnit, CN=POpenVPN-CA/name=EasyRSA/emailAddress=cesare.pec@gmail.com
        Validity
            Not Before: Jan 22 15:16:15 2018 GMT
            Not After : Jan 20 15:16:15 2028 GMT
        Subject: C=IT, ST=Italy, L=Torino, O=HBR, OU=MyOrganizationalUnit, CN=client1/name=EasyRSA/emailAddress=cesare.pec@gmail.com
        Subject Public Key Info:
            Public Key Algorithm: rsaEncryption
                Public-Key: (2048 bit)
                Modulus:
                    00:a8:39:c9:74:90:67:d1:cc:cc:c6:62:22:3a:01:
                    33:07:b8:2b:81:74:97:24:a2:fb:9c:22:38:9f:5c:
                    74:2e:5c:3c:a6:5e:95:5c:54:69:a2:33:ad:3e:d7:
                    2f:ab:cb:93:45:de:12:6a:75:f1:e8:4f:42:ed:a8:
                    0b:f4:bb:9f:2e:a3:95:b6:d1:99:b6:9a:b7:3e:09:
                    a0:ba:aa:13:1f:7c:96:e9:b1:8c:fe:60:f9:55:fe:
                    68:2a:70:2e:2d:84:12:7c:55:b4:e7:e8:49:41:84:
                    a2:19:5a:da:8e:aa:10:d0:b0:18:26:8f:d1:6b:84:
                    d8:ee:d8:58:b4:d1:1a:45:1d:09:f4:41:16:7b:8f:
                    92:3f:3a:61:4e:1d:f3:09:7b:a8:8a:71:59:a9:32:
                    1e:93:7c:a7:ac:ce:ee:a1:47:ac:c6:d7:1e:ee:ce:
                    ef:66:7f:ea:08:dd:63:15:e8:0b:1b:2e:5c:e0:20:
                    46:75:03:1d:a5:19:7a:60:61:26:7f:56:28:ac:21:
                    6b:d4:8b:da:05:52:d0:38:5e:89:49:cd:c1:65:04:
                    ee:69:f4:1b:61:d2:fc:16:97:4f:d9:e3:7b:65:45:
                    67:a8:f6:68:40:31:97:20:f6:c1:6c:a0:ee:11:8b:
                    5c:db:36:39:f9:3a:67:30:7a:b2:5a:64:7b:e6:52:
                    cf:e7
                Exponent: 65537 (0x10001)
        X509v3 extensions:
            X509v3 Basic Constraints: 
                CA:FALSE
            Netscape Comment: 
                Easy-RSA Generated Certificate
            X509v3 Subject Key Identifier: 
                42:E1:9A:71:D4:34:A7:14:60:FE:2F:82:C2:3D:EE:2D:C9:35:A1:9A
            X509v3 Authority Key Identifier: 
                keyid:59:6A:31:0F:32:6A:80:51:CE:B2:DC:C0:E2:F8:6B:C2:9F:33:54:4A
                DirName:/C=IT/ST=Italy/L=Torino/O=HBR/OU=MyOrganizationalUnit/CN=POpenVPN-CA/name=EasyRSA/emailAddress=cesare.pec@gmail.com
                serial:B5:CC:09:20:21:4F:6A:97

            X509v3 Extended Key Usage: 
                TLS Web Client Authentication
            X509v3 Key Usage: 
                Digital Signature
            X509v3 Subject Alternative Name: 
                DNS:client1
    Signature Algorithm: sha256WithRSAEncryption
         8b:5a:36:37:5c:d7:36:69:fe:e0:92:0d:da:f9:66:0c:5e:ca:
         87:e9:21:46:6e:38:66:75:04:1f:f2:db:74:13:2d:0b:36:ce:
         78:3d:1c:bc:47:46:fb:9a:79:e8:58:63:c2:6c:47:7e:d9:64:
         7e:0b:9a:36:a6:08:3d:64:1d:fc:30:cd:8a:5e:d7:68:62:05:
         c9:1a:4c:e5:79:fa:22:58:d0:f7:18:f9:c9:88:0a:84:87:cb:
         6e:07:c8:ee:09:49:ee:ff:6f:c4:43:3e:13:a9:97:f8:36:e3:
         77:31:19:23:46:00:48:f6:2a:3d:16:83:84:0f:bd:8a:f7:48:
         c6:ff:ed:29:76:4f:29:69:a5:34:3a:07:37:4f:e2:f9:00:11:
         b2:71:44:9f:45:b6:00:33:92:74:cd:b6:ad:be:4f:5d:6a:3a:
         70:6a:70:a7:38:c3:42:a2:e7:f9:d0:dd:64:50:f1:ff:22:61:
         df:6d:a7:6b:7d:d4:64:18:3e:3b:95:2c:52:4c:ae:55:d9:cd:
         fb:a6:a0:2b:f4:8a:55:37:24:09:0e:85:68:a9:16:a2:bd:8e:
         e2:62:f4:ae:68:f8:2e:88:34:14:9b:34:af:df:6c:fd:de:e3:
         b6:2d:ca:61:57:41:a1:7a:db:d1:cc:3c:cd:9b:13:90:cf:15:
         68:fa:71:26
-----BEGIN CERTIFICATE-----
MIIFPjCCBCagAwIBAgIBAjANBgkqhkiG9w0BAQsFADCBqDELMAkGA1UEBhMCSVQx
DjAMBgNVBAgTBUl0YWx5MQ8wDQYDVQQHEwZUb3Jpbm8xDDAKBgNVBAoTA0hCUjEd
MBsGA1UECxMUTXlPcmdhbml6YXRpb25hbFVuaXQxFDASBgNVBAMTC1BPcGVuVlBO
LUNBMRAwDgYDVQQpEwdFYXN5UlNBMSMwIQYJKoZIhvcNAQkBFhRjZXNhcmUucGVj
QGdtYWlsLmNvbTAeFw0xODAxMjIxNTE2MTVaFw0yODAxMjAxNTE2MTVaMIGkMQsw
CQYDVQQGEwJJVDEOMAwGA1UECBMFSXRhbHkxDzANBgNVBAcTBlRvcmlubzEMMAoG
A1UEChMDSEJSMR0wGwYDVQQLExRNeU9yZ2FuaXphdGlvbmFsVW5pdDEQMA4GA1UE
AxMHY2xpZW50MTEQMA4GA1UEKRMHRWFzeVJTQTEjMCEGCSqGSIb3DQEJARYUY2Vz
YXJlLnBlY0BnbWFpbC5jb20wggEiMA0GCSqGSIb3DQEBAQUAA4IBDwAwggEKAoIB
AQCoOcl0kGfRzMzGYiI6ATMHuCuBdJckovucIjifXHQuXDymXpVcVGmiM60+1y+r
y5NF3hJqdfHoT0LtqAv0u58uo5W20Zm2mrc+CaC6qhMffJbpsYz+YPlV/mgqcC4t
hBJ8VbTn6ElBhKIZWtqOqhDQsBgmj9FrhNju2Fi00RpFHQn0QRZ7j5I/OmFOHfMJ
e6iKcVmpMh6TfKeszu6hR6zG1x7uzu9mf+oI3WMV6AsbLlzgIEZ1Ax2lGXpgYSZ/
ViisIWvUi9oFUtA4XolJzcFlBO5p9Bth0vwWl0/Z43tlRWeo9mhAMZcg9sFsoO4R
i1zbNjn5OmcwerJaZHvmUs/nAgMBAAGjggFzMIIBbzAJBgNVHRMEAjAAMC0GCWCG
SAGG+EIBDQQgFh5FYXN5LVJTQSBHZW5lcmF0ZWQgQ2VydGlmaWNhdGUwHQYDVR0O
BBYEFELhmnHUNKcUYP4vgsI97i3JNaGaMIHdBgNVHSMEgdUwgdKAFFlqMQ8yaoBR
zrLcwOL4a8KfM1RKoYGupIGrMIGoMQswCQYDVQQGEwJJVDEOMAwGA1UECBMFSXRh
bHkxDzANBgNVBAcTBlRvcmlubzEMMAoGA1UEChMDSEJSMR0wGwYDVQQLExRNeU9y
Z2FuaXphdGlvbmFsVW5pdDEUMBIGA1UEAxMLUE9wZW5WUE4tQ0ExEDAOBgNVBCkT
B0Vhc3lSU0ExIzAhBgkqhkiG9w0BCQEWFGNlc2FyZS5wZWNAZ21haWwuY29tggkA
tcwJICFPapcwEwYDVR0lBAwwCgYIKwYBBQUHAwIwCwYDVR0PBAQDAgeAMBIGA1Ud
EQQLMAmCB2NsaWVudDEwDQYJKoZIhvcNAQELBQADggEBAItaNjdc1zZp/uCSDdr5
ZgxeyofpIUZuOGZ1BB/y23QTLQs2zng9HLxHRvuaeehYY8JsR37ZZH4LmjamCD1k
HfwwzYpe12hiBckaTOV5+iJY0PcY+cmICoSHy24HyO4JSe7/b8RDPhOpl/g243cx
GSNGAEj2Kj0Wg4QPvYr3SMb/7Sl2TylppTQ6BzdP4vkAEbJxRJ9FtgAzknTNtq2+
T11qOnBqcKc4w0Ki5/nQ3WRQ8f8iYd9tp2t91GQYPjuVLFJMrlXZzfumoCv0ilU3
JAkOhWipFqK9juJi9K5o+C6INBSbNK/fbP3e47YtymFXQaF629HMPM2bE5DPFWj6
cSY=
-----END CERTIFICATE-----
